; Function Attrs: mustprogress nofree norecurse nosync nounwind willreturn memory(none) uwtable
define internal zeroext i16 @cff_get_standard_encoding(i32 noundef %0) #6 {
  %2 = icmp ult i32 %0, 256
  br i1 %2, label %3, label %7

3:                                                ; preds = %1
  %4 = zext nneg i32 %0 to i64
  %5 = getelementptr inbounds [256 x i16], ptr @cff_standard_encoding, i64 0, i64 %4
  %6 = load i16, ptr %5, align 2
  br label %7

7:                                                ; preds = %1, %3
  %8 = phi i16 [ %6, %3 ], [ 0, %1 ]
  ret i16 %8
}